target datalayout = "e-m:e-p270:32:32-p271:32:32-p272:64:64-i64:64-i128:128-f80:128-n8:16:32:64-S128"
target triple = "x86_64-pc-linux-gnu"

%struct.client = type { i64, i64, ptr, i8, i8, i8, i8, i32, ptr, ptr, ptr, ptr, ptr, i64, i64, i32, ptr, i32, i32, ptr, i64, ptr, ptr, ptr, ptr, ptr, i32, i32, i64, ptr, i64, ptr, i64, i64, i64, i32, ptr, i64, i64, i32, i32, i32, i32, i64, i64, ptr, i64, i64, i64, i64, i64, i64, i64, i64, [41 x i8], i32, ptr, i32, i32, i64, %struct.multiState, %struct.blockingState, i64, ptr, ptr, ptr, ptr, ptr, ptr, ptr, ptr, ptr, ptr, ptr, ptr, ptr, ptr, i64, ptr, i64, i32, ptr, ptr, ptr, i64, %struct.listNode, i64, i64, i32, i64, ptr }
%struct.multiState = type { ptr, i32, i32, i32, i64, i32 }
%struct.blockingState = type { i32, i64, i32, ptr, i32, i32, i64, ptr, ptr, i64 }
%struct.listNode = type { ptr, ptr, ptr }
%struct.bcastState = type { ptr, ptr }

@PrefixTable = dso_local global ptr null, align 8

; Function Attrs: nounwind uwtable
define dso_local void @enableBcastTrackingForPrefix(ptr noundef %0, ptr noundef %1, i64 noundef %2) #0 {
  %4 = alloca ptr, align 8
  %5 = alloca ptr, align 8
  %6 = alloca i64, align 8
  %7 = alloca ptr, align 8
  %8 = alloca ptr, align 8
  store ptr %0, ptr %4, align 8, !tbaa !5
  store ptr %1, ptr %5, align 8, !tbaa !71
  store i64 %2, ptr %6, align 8, !tbaa !67
  call void @llvm.lifetime.start.p0(i64 8, ptr %7) #10
  call void @llvm.lifetime.start.p0(i64 8, ptr %8) #10
  %9 = load ptr, ptr @PrefixTable, align 8, !tbaa !31
  %10 = load ptr, ptr %5, align 8, !tbaa !71
  %11 = load i64, ptr %6, align 8, !tbaa !67
  %12 = call i32 @raxFind(ptr noundef %9, ptr noundef %10, i64 noundef %11, ptr noundef %7)
  %13 = icmp ne i32 %12, 0
  br i1 %13, label %27, label %14

14:                                               ; preds = %3
  %15 = call noalias ptr @zmalloc(i64 noundef 16) #13
  store ptr %15, ptr %8, align 8, !tbaa !39
  %16 = call ptr @raxNew()
  %17 = load ptr, ptr %8, align 8, !tbaa !39
  %18 = getelementptr inbounds nuw %struct.bcastState, ptr %17, i32 0, i32 0
  store ptr %16, ptr %18, align 8, !tbaa !43
  %19 = call ptr @raxNew()
  %20 = load ptr, ptr %8, align 8, !tbaa !39
  %21 = getelementptr inbounds nuw %struct.bcastState, ptr %20, i32 0, i32 1
  store ptr %19, ptr %21, align 8, !tbaa !41
  %22 = load ptr, ptr @PrefixTable, align 8, !tbaa !31
  %23 = load ptr, ptr %5, align 8, !tbaa !71
  %24 = load i64, ptr %6, align 8, !tbaa !67
  %25 = load ptr, ptr %8, align 8, !tbaa !39
  %26 = call i32 @raxInsert(ptr noundef %22, ptr noundef %23, i64 noundef %24, ptr noundef %25, ptr noundef null)
  br label %29

27:                                               ; preds = %3
  %28 = load ptr, ptr %7, align 8, !tbaa !38
  store ptr %28, ptr %8, align 8, !tbaa !39
  br label %29

29:                                               ; preds = %27, %14
  %30 = load ptr, ptr %8, align 8, !tbaa !39
  %31 = getelementptr inbounds nuw %struct.bcastState, ptr %30, i32 0, i32 1
  %32 = load ptr, ptr %31, align 8, !tbaa !41
  %33 = call i32 @raxTryInsert(ptr noundef %32, ptr noundef %4, i64 noundef 8, ptr noundef null, ptr noundef null)
  %34 = icmp ne i32 %33, 0
  br i1 %34, label %35, label %51

35:                                               ; preds = %29
  %36 = load ptr, ptr %4, align 8, !tbaa !5
  %37 = getelementptr inbounds nuw %struct.client, ptr %36, i32 0, i32 78
  %38 = load ptr, ptr %37, align 8, !tbaa !30
  %39 = icmp eq ptr %38, null
  br i1 %39, label %40, label %44

40:                                               ; preds = %35
  %41 = call ptr @raxNew()
  %42 = load ptr, ptr %4, align 8, !tbaa !5
  %43 = getelementptr inbounds nuw %struct.client, ptr %42, i32 0, i32 78
  store ptr %41, ptr %43, align 8, !tbaa !30
  br label %44

44:                                               ; preds = %40, %35
  %45 = load ptr, ptr %4, align 8, !tbaa !5
  %46 = getelementptr inbounds nuw %struct.client, ptr %45, i32 0, i32 78
  %47 = load ptr, ptr %46, align 8, !tbaa !30
  %48 = load ptr, ptr %5, align 8, !tbaa !71
  %49 = load i64, ptr %6, align 8, !tbaa !67
  %50 = call i32 @raxInsert(ptr noundef %47, ptr noundef %48, i64 noundef %49, ptr noundef null, ptr noundef null)
  br label %51

51:                                               ; preds = %44, %29
  call void @llvm.lifetime.end.p0(i64 8, ptr %8) #10
  call void @llvm.lifetime.end.p0(i64 8, ptr %7) #10
  ret void
}