; Function Attrs: nounwind uwtable
define dso_local void @enableBcastTrackingForPrefix(ptr noundef %0, ptr noundef %1, i64 noundef %2) local_unnamed_addr #0 {
  %4 = alloca ptr, align 8
  %5 = alloca ptr, align 8
  store ptr %0, ptr %4, align 8, !tbaa !5
  call void @llvm.lifetime.start.p0(i64 8, ptr nonnull %5) #9
  %6 = load ptr, ptr @PrefixTable, align 8, !tbaa !31
  %7 = call i32 @raxFind(ptr noundef %6, ptr noundef %1, i64 noundef %2, ptr noundef nonnull %5) #9
  %.not = icmp eq i32 %7, 0
  br i1 %.not, label %8, label %15

8:                                                ; preds = %3
  %9 = call noalias dereferenceable_or_null(16) ptr @zmalloc(i64 noundef 16) #11
  %10 = call ptr @raxNew() #9
  store ptr %10, ptr %9, align 8, !tbaa !41
  %11 = call ptr @raxNew() #9
  %12 = getelementptr inbounds nuw i8, ptr %9, i64 8
  store ptr %11, ptr %12, align 8, !tbaa !39
  %13 = load ptr, ptr @PrefixTable, align 8, !tbaa !31
  %14 = call i32 @raxInsert(ptr noundef %13, ptr noundef %1, i64 noundef %2, ptr noundef nonnull %9, ptr noundef null) #9
  br label %17

15:                                               ; preds = %3
  %16 = load ptr, ptr %5, align 8, !tbaa !38
  br label %17

17:                                               ; preds = %15, %8
  %.0 = phi ptr [ %16, %15 ], [ %9, %8 ]
  %18 = getelementptr inbounds nuw i8, ptr %.0, i64 8
  %19 = load ptr, ptr %18, align 8, !tbaa !39
  %20 = call i32 @raxTryInsert(ptr noundef %19, ptr noundef nonnull %4, i64 noundef 8, ptr noundef null, ptr noundef null) #9
  %.not9 = icmp eq i32 %20, 0
  br i1 %.not9, label %33, label %21

21:                                               ; preds = %17
  %22 = load ptr, ptr %4, align 8, !tbaa !5
  %23 = getelementptr inbounds nuw i8, ptr %22, i64 680
  %24 = load ptr, ptr %23, align 8, !tbaa !30
  %25 = icmp eq ptr %24, null
  br i1 %25, label %26, label %30

26:                                               ; preds = %21
  %27 = call ptr @raxNew() #9
  %28 = load ptr, ptr %4, align 8, !tbaa !5
  %29 = getelementptr inbounds nuw i8, ptr %28, i64 680
  store ptr %27, ptr %29, align 8, !tbaa !30
  br label %30

30:                                               ; preds = %26, %21
  %31 = phi ptr [ %27, %26 ], [ %24, %21 ]
  %32 = call i32 @raxInsert(ptr noundef %31, ptr noundef %1, i64 noundef %2, ptr noundef null, ptr noundef null) #9
  br label %33

33:                                               ; preds = %30, %17
  call void @llvm.lifetime.end.p0(i64 8, ptr nonnull %5) #9
  ret void
}